target datalayout = "e-m:e-p270:32:32-p271:32:32-p272:64:64-i64:64-i128:128-f80:128-n8:16:32:64-S128"
target triple = "x86_64-pc-linux-gnu"

%struct.SN_env = type { ptr, i32, i32, i32, i32, i32, ptr, ptr }

; Function Attrs: nounwind uwtable
define internal i32 @r_has_min_length(ptr noundef %0) #0 {
  %2 = alloca i32, align 4
  %3 = alloca ptr, align 8
  store ptr %0, ptr %3, align 8
  %4 = load ptr, ptr %3, align 8
  %5 = getelementptr inbounds nuw %struct.SN_env, ptr %4, i32 0, i32 0
  %6 = load ptr, ptr %5, align 8
  %7 = call i32 @len_utf8(ptr noundef %6)
  %8 = icmp sgt i32 %7, 4
  br i1 %8, label %10, label %9

9:                                                ; preds = %1
  store i32 0, ptr %2, align 4
  br label %11

10:                                               ; preds = %1
  store i32 1, ptr %2, align 4
  br label %11

11:                                               ; preds = %10, %9
  %12 = load i32, ptr %2, align 4
  ret i32 %12
}

; Function Attrs: nounwind uwtable
define internal i32 @r_remove_command_suffixes(ptr noundef %0) #0 {
  %2 = alloca i32, align 4
  %3 = alloca ptr, align 8
  %4 = alloca i32, align 4
  %5 = alloca i32, align 4
  %6 = alloca i32, align 4
  store ptr %0, ptr %3, align 8
  call void @llvm.lifetime.start.p0(i64 4, ptr %4) #3
  %7 = load ptr, ptr %3, align 8
  %8 = call i32 @r_has_min_length(ptr noundef %7)
  store i32 %8, ptr %4, align 4
  %9 = load i32, ptr %4, align 4
  %10 = icmp sle i32 %9, 0
  br i1 %10, label %11, label %13

11:                                               ; preds = %1
  %12 = load i32, ptr %4, align 4
  store i32 %12, ptr %2, align 4
  store i32 1, ptr %5, align 4
  br label %14

13:                                               ; preds = %1
  store i32 0, ptr %5, align 4
  br label %14

14:                                               ; preds = %13, %11
  call void @llvm.lifetime.end.p0(i64 4, ptr %4) #3
  %15 = load i32, ptr %5, align 4
  switch i32 %15, label %90 [
    i32 0, label %16
    i32 1, label %88
  ]

16:                                               ; preds = %14
  %17 = load ptr, ptr %3, align 8
  %18 = getelementptr inbounds nuw %struct.SN_env, ptr %17, i32 0, i32 7
  %19 = load ptr, ptr %18, align 8
  %20 = getelementptr inbounds i32, ptr %19, i64 1
  store i32 0, ptr %20, align 4
  %21 = load ptr, ptr %3, align 8
  %22 = getelementptr inbounds nuw %struct.SN_env, ptr %21, i32 0, i32 1
  %23 = load i32, ptr %22, align 8
  %24 = load ptr, ptr %3, align 8
  %25 = getelementptr inbounds nuw %struct.SN_env, ptr %24, i32 0, i32 3
  store i32 %23, ptr %25, align 8
  %26 = load ptr, ptr %3, align 8
  %27 = getelementptr inbounds nuw %struct.SN_env, ptr %26, i32 0, i32 2
  %28 = load i32, ptr %27, align 4
  %29 = load ptr, ptr %3, align 8
  %30 = getelementptr inbounds nuw %struct.SN_env, ptr %29, i32 0, i32 1
  store i32 %28, ptr %30, align 8
  %31 = load ptr, ptr %3, align 8
  %32 = getelementptr inbounds nuw %struct.SN_env, ptr %31, i32 0, i32 1
  %33 = load i32, ptr %32, align 8
  %34 = load ptr, ptr %3, align 8
  %35 = getelementptr inbounds nuw %struct.SN_env, ptr %34, i32 0, i32 5
  store i32 %33, ptr %35, align 8
  %36 = load ptr, ptr %3, align 8
  %37 = getelementptr inbounds nuw %struct.SN_env, ptr %36, i32 0, i32 1
  %38 = load i32, ptr %37, align 8
  %39 = sub i32 %38, 5
  %40 = load ptr, ptr %3, align 8
  %41 = getelementptr inbounds nuw %struct.SN_env, ptr %40, i32 0, i32 3
  %42 = load i32, ptr %41, align 8
  %43 = icmp sle i32 %39, %42
  br i1 %43, label %57, label %44

44:                                               ; preds = %16
  %45 = load ptr, ptr %3, align 8
  %46 = getelementptr inbounds nuw %struct.SN_env, ptr %45, i32 0, i32 0
  %47 = load ptr, ptr %46, align 8
  %48 = load ptr, ptr %3, align 8
  %49 = getelementptr inbounds nuw %struct.SN_env, ptr %48, i32 0, i32 1
  %50 = load i32, ptr %49, align 8
  %51 = sub i32 %50, 1
  %52 = sext i32 %51 to i64
  %53 = getelementptr inbounds i8, ptr %47, i64 %52
  %54 = load i8, ptr %53, align 1
  %55 = zext i8 %54 to i32
  %56 = icmp ne i32 %55, 191
  br i1 %56, label %57, label %58

57:                                               ; preds = %44, %16
  store i32 0, ptr %2, align 4
  br label %88

58:                                               ; preds = %44
  %59 = load ptr, ptr %3, align 8
  %60 = call i32 @find_among_b(ptr noundef %59, ptr noundef @a_15, i32 noundef 2)
  %61 = icmp ne i32 %60, 0
  br i1 %61, label %63, label %62

62:                                               ; preds = %58
  store i32 0, ptr %2, align 4
  br label %88

63:                                               ; preds = %58
  %64 = load ptr, ptr %3, align 8
  %65 = getelementptr inbounds nuw %struct.SN_env, ptr %64, i32 0, i32 1
  %66 = load i32, ptr %65, align 8
  %67 = load ptr, ptr %3, align 8
  %68 = getelementptr inbounds nuw %struct.SN_env, ptr %67, i32 0, i32 4
  store i32 %66, ptr %68, align 4
  call void @llvm.lifetime.start.p0(i64 4, ptr %6) #3
  %69 = load ptr, ptr %3, align 8
  %70 = call i32 @slice_del(ptr noundef %69)
  store i32 %70, ptr %6, align 4
  %71 = load i32, ptr %6, align 4
  %72 = icmp slt i32 %71, 0
  br i1 %72, label %73, label %75

73:                                               ; preds = %63
  %74 = load i32, ptr %6, align 4
  store i32 %74, ptr %2, align 4
  store i32 1, ptr %5, align 4
  br label %76

75:                                               ; preds = %63
  store i32 0, ptr %5, align 4
  br label %76

76:                                               ; preds = %75, %73
  call void @llvm.lifetime.end.p0(i64 4, ptr %6) #3
  %77 = load i32, ptr %5, align 4
  switch i32 %77, label %90 [
    i32 0, label %78
    i32 1, label %88
  ]

78:                                               ; preds = %76
  %79 = load ptr, ptr %3, align 8
  %80 = getelementptr inbounds nuw %struct.SN_env, ptr %79, i32 0, i32 7
  %81 = load ptr, ptr %80, align 8
  %82 = getelementptr inbounds i32, ptr %81, i64 1
  store i32 1, ptr %82, align 4
  %83 = load ptr, ptr %3, align 8
  %84 = getelementptr inbounds nuw %struct.SN_env, ptr %83, i32 0, i32 3
  %85 = load i32, ptr %84, align 8
  %86 = load ptr, ptr %3, align 8
  %87 = getelementptr inbounds nuw %struct.SN_env, ptr %86, i32 0, i32 1
  store i32 %85, ptr %87, align 8
  store i32 1, ptr %2, align 4
  br label %88

88:                                               ; preds = %78, %76, %62, %57, %14
  %89 = load i32, ptr %2, align 4
  ret i32 %89

90:                                               ; preds = %76, %14
  unreachable
}