; Function Attrs: nounwind uwtable
define internal fastcc range(i32 -2147483648, 2) i32 @r_remove_command_suffixes(ptr noundef %0) unnamed_addr #0 {
  %.val = load ptr, ptr %0, align 8
  %2 = tail call i32 @len_utf8(ptr noundef %.val) #3
  %3 = icmp sgt i32 %2, 4
  br i1 %3, label %4, label %32

4:                                                ; preds = %1
  %5 = getelementptr inbounds nuw i8, ptr %0, i64 40
  %6 = load ptr, ptr %5, align 8
  %7 = getelementptr inbounds nuw i8, ptr %6, i64 4
  store i32 0, ptr %7, align 4
  %8 = getelementptr inbounds nuw i8, ptr %0, i64 8
  %9 = load i32, ptr %8, align 8
  %10 = getelementptr inbounds nuw i8, ptr %0, i64 16
  store i32 %9, ptr %10, align 8
  %11 = getelementptr inbounds nuw i8, ptr %0, i64 12
  %12 = load i32, ptr %11, align 4
  store i32 %12, ptr %8, align 8
  %13 = getelementptr inbounds nuw i8, ptr %0, i64 24
  store i32 %12, ptr %13, align 8
  %14 = add i32 %12, -5
  %.not = icmp sgt i32 %14, %9
  br i1 %.not, label %15, label %32

15:                                               ; preds = %4
  %16 = load ptr, ptr %0, align 8
  %17 = add i32 %12, -1
  %18 = sext i32 %17 to i64
  %19 = getelementptr inbounds i8, ptr %16, i64 %18
  %20 = load i8, ptr %19, align 1
  %.not27 = icmp eq i8 %20, -65
  br i1 %.not27, label %21, label %32

21:                                               ; preds = %15
  %22 = tail call i32 @find_among_b(ptr noundef nonnull %0, ptr noundef nonnull @a_15, i32 noundef 2) #3
  %.not28 = icmp eq i32 %22, 0
  br i1 %.not28, label %32, label %23

23:                                               ; preds = %21
  %24 = load i32, ptr %8, align 8
  %25 = getelementptr inbounds nuw i8, ptr %0, i64 20
  store i32 %24, ptr %25, align 4
  %26 = tail call i32 @slice_del(ptr noundef nonnull %0) #3
  %27 = icmp sgt i32 %26, -1
  br i1 %27, label %28, label %32

28:                                               ; preds = %23
  %29 = load ptr, ptr %5, align 8
  %30 = getelementptr inbounds nuw i8, ptr %29, i64 4
  store i32 1, ptr %30, align 4
  %31 = load i32, ptr %10, align 8
  store i32 %31, ptr %8, align 8
  br label %32

32:                                               ; preds = %23, %1, %21, %4, %15, %28
  %.1 = phi i32 [ 0, %1 ], [ %26, %23 ], [ 1, %28 ], [ 0, %15 ], [ 0, %4 ], [ 0, %21 ]
  ret i32 %.1
}